target datalayout = "e-m:e-p270:32:32-p271:32:32-p272:64:64-i64:64-i128:128-f80:128-n8:16:32:64-S128"
target triple = "x86_64-pc-linux-gnu"

%struct.IMapEntry_s = type { %struct.dtlink_s_, %struct.dtlink_s_, i64, ptr }
%struct.dtlink_s_ = type { ptr, %union.anon }
%union.anon = type { ptr }
%struct.Agraph_s = type { %struct.Agobj_s, %struct.Agdesc_s, %struct.dtlink_s_, %struct.dtlink_s_, ptr, ptr, ptr, ptr, ptr, ptr, ptr, ptr, ptr }
%struct.Agobj_s = type { %struct.Agtag_s, ptr }
%struct.Agtag_s = type { i32, i64 }
%struct.Agdesc_s = type { i8, [3 x i8] }
%struct.Agclos_s = type { %struct.Agdisc_s, %struct.Agdstate_s, ptr, [3 x i64], ptr, [3 x ptr], [3 x ptr] }
%struct.Agdisc_s = type { ptr, ptr }
%struct.Agdstate_s = type { ptr }
%struct.dt_s_ = type { ptr, ptr, %struct.Dtdata_t, ptr, i32, ptr, ptr, ptr }
%struct.Dtdata_t = type { i32, ptr, %union.anon.0, i32, i32, i32 }
%union.anon.0 = type { ptr }

; Function Attrs: nounwind uwtable
define internal ptr @find_isym(ptr noundef %0, i32 noundef %1, i64 noundef %2) #0 {
  %4 = alloca ptr, align 8
  %5 = alloca i32, align 4
  %6 = alloca i64, align 8
  %7 = alloca ptr, align 8
  %8 = alloca ptr, align 8
  %9 = alloca %struct.IMapEntry_s, align 8
  store ptr %0, ptr %4, align 8, !tbaa !3
  store i32 %1, ptr %5, align 4, !tbaa !8
  store i64 %2, ptr %6, align 8, !tbaa !36
  call void @llvm.lifetime.start.p0(i64 8, ptr %7) #8
  call void @llvm.lifetime.start.p0(i64 8, ptr %8) #8
  call void @llvm.lifetime.start.p0(i64 48, ptr %9) #8
  %10 = load i32, ptr %5, align 4, !tbaa !8
  %11 = icmp eq i32 %10, 3
  br i1 %11, label %12, label %13

12:                                               ; preds = %3
  store i32 2, ptr %5, align 4, !tbaa !8
  br label %13

13:                                               ; preds = %12, %3
  %14 = load ptr, ptr %4, align 8, !tbaa !3
  %15 = getelementptr inbounds nuw %struct.Agraph_s, ptr %14, i32 0, i32 12
  %16 = load ptr, ptr %15, align 8, !tbaa !14
  %17 = getelementptr inbounds nuw %struct.Agclos_s, ptr %16, i32 0, i32 6
  %18 = load i32, ptr %5, align 4, !tbaa !8
  %19 = sext i32 %18 to i64
  %20 = getelementptr inbounds [3 x ptr], ptr %17, i64 0, i64 %19
  %21 = load ptr, ptr %20, align 8, !tbaa !26
  store ptr %21, ptr %7, align 8, !tbaa !26
  %22 = icmp ne ptr %21, null
  br i1 %22, label %23, label %31

23:                                               ; preds = %13
  %24 = load i64, ptr %6, align 8, !tbaa !36
  %25 = getelementptr inbounds nuw %struct.IMapEntry_s, ptr %9, i32 0, i32 2
  store i64 %24, ptr %25, align 8, !tbaa !35
  %26 = load ptr, ptr %7, align 8, !tbaa !26
  %27 = getelementptr inbounds nuw %struct.dt_s_, ptr %26, i32 0, i32 0
  %28 = load ptr, ptr %27, align 8, !tbaa !29
  %29 = load ptr, ptr %7, align 8, !tbaa !26
  %30 = call ptr %28(ptr noundef %29, ptr noundef %9, i32 noundef 4)
  store ptr %30, ptr %8, align 8, !tbaa !33
  br label %32

31:                                               ; preds = %13
  store ptr null, ptr %8, align 8, !tbaa !33
  br label %32

32:                                               ; preds = %31, %23
  %33 = load ptr, ptr %8, align 8, !tbaa !33
  call void @llvm.lifetime.end.p0(i64 48, ptr %9) #8
  call void @llvm.lifetime.end.p0(i64 8, ptr %8) #8
  call void @llvm.lifetime.end.p0(i64 8, ptr %7) #8
  ret ptr %33
}

; Function Attrs: nounwind uwtable
define i32 @aginternalmapdelete(ptr noundef %0, i32 noundef %1, i64 noundef %2) #0 {
  %4 = alloca i32, align 4
  %5 = alloca ptr, align 8
  %6 = alloca i32, align 4
  %7 = alloca i64, align 8
  %8 = alloca ptr, align 8
  %9 = alloca i32, align 4
  store ptr %0, ptr %5, align 8, !tbaa !3
  store i32 %1, ptr %6, align 4, !tbaa !8
  store i64 %2, ptr %7, align 8, !tbaa !36
  call void @llvm.lifetime.start.p0(i64 8, ptr %8) #8
  %10 = load i32, ptr %6, align 4, !tbaa !8
  %11 = icmp eq i32 %10, 3
  br i1 %11, label %12, label %13

12:                                               ; preds = %3
  store i32 2, ptr %6, align 4, !tbaa !8
  br label %13

13:                                               ; preds = %12, %3
  %14 = load ptr, ptr %5, align 8, !tbaa !3
  %15 = load i32, ptr %6, align 4, !tbaa !8
  %16 = load i64, ptr %7, align 8, !tbaa !36
  %17 = call ptr @find_isym(ptr noundef %14, i32 noundef %15, i64 noundef %16)
  store ptr %17, ptr %8, align 8, !tbaa !33
  %18 = icmp ne ptr %17, null
  br i1 %18, label %19, label %66

19:                                               ; preds = %13
  %20 = load ptr, ptr %5, align 8, !tbaa !3
  %21 = getelementptr inbounds nuw %struct.Agraph_s, ptr %20, i32 0, i32 12
  %22 = load ptr, ptr %21, align 8, !tbaa !14
  %23 = getelementptr inbounds nuw %struct.Agclos_s, ptr %22, i32 0, i32 5
  %24 = load i32, ptr %6, align 4, !tbaa !8
  %25 = sext i32 %24 to i64
  %26 = getelementptr inbounds [3 x ptr], ptr %23, i64 0, i64 %25
  %27 = load ptr, ptr %26, align 8, !tbaa !26
  %28 = getelementptr inbounds nuw %struct.dt_s_, ptr %27, i32 0, i32 0
  %29 = load ptr, ptr %28, align 8, !tbaa !29
  %30 = load ptr, ptr %5, align 8, !tbaa !3
  %31 = getelementptr inbounds nuw %struct.Agraph_s, ptr %30, i32 0, i32 12
  %32 = load ptr, ptr %31, align 8, !tbaa !14
  %33 = getelementptr inbounds nuw %struct.Agclos_s, ptr %32, i32 0, i32 5
  %34 = load i32, ptr %6, align 4, !tbaa !8
  %35 = sext i32 %34 to i64
  %36 = getelementptr inbounds [3 x ptr], ptr %33, i64 0, i64 %35
  %37 = load ptr, ptr %36, align 8, !tbaa !26
  %38 = load ptr, ptr %8, align 8, !tbaa !33
  %39 = call ptr %29(ptr noundef %37, ptr noundef %38, i32 noundef 2)
  %40 = load ptr, ptr %5, align 8, !tbaa !3
  %41 = getelementptr inbounds nuw %struct.Agraph_s, ptr %40, i32 0, i32 12
  %42 = load ptr, ptr %41, align 8, !tbaa !14
  %43 = getelementptr inbounds nuw %struct.Agclos_s, ptr %42, i32 0, i32 6
  %44 = load i32, ptr %6, align 4, !tbaa !8
  %45 = sext i32 %44 to i64
  %46 = getelementptr inbounds [3 x ptr], ptr %43, i64 0, i64 %45
  %47 = load ptr, ptr %46, align 8, !tbaa !26
  %48 = getelementptr inbounds nuw %struct.dt_s_, ptr %47, i32 0, i32 0
  %49 = load ptr, ptr %48, align 8, !tbaa !29
  %50 = load ptr, ptr %5, align 8, !tbaa !3
  %51 = getelementptr inbounds nuw %struct.Agraph_s, ptr %50, i32 0, i32 12
  %52 = load ptr, ptr %51, align 8, !tbaa !14
  %53 = getelementptr inbounds nuw %struct.Agclos_s, ptr %52, i32 0, i32 6
  %54 = load i32, ptr %6, align 4, !tbaa !8
  %55 = sext i32 %54 to i64
  %56 = getelementptr inbounds [3 x ptr], ptr %53, i64 0, i64 %55
  %57 = load ptr, ptr %56, align 8, !tbaa !26
  %58 = load ptr, ptr %8, align 8, !tbaa !33
  %59 = call ptr %49(ptr noundef %57, ptr noundef %58, i32 noundef 2)
  %60 = load ptr, ptr %5, align 8, !tbaa !3
  %61 = load ptr, ptr %8, align 8, !tbaa !33
  %62 = getelementptr inbounds nuw %struct.IMapEntry_s, ptr %61, i32 0, i32 3
  %63 = load ptr, ptr %62, align 8, !tbaa !27
  %64 = call i32 @agstrfree(ptr noundef %60, ptr noundef %63, i1 noundef zeroext false)
  %65 = load ptr, ptr %8, align 8, !tbaa !33
  call void @free(ptr noundef %65) #8
  store i32 1, ptr %4, align 4
  store i32 1, ptr %9, align 4
  br label %67

66:                                               ; preds = %13
  store i32 0, ptr %4, align 4
  store i32 1, ptr %9, align 4
  br label %67

67:                                               ; preds = %66, %19
  call void @llvm.lifetime.end.p0(i64 8, ptr %8) #8
  %68 = load i32, ptr %4, align 4
  ret i32 %68
}