; Function Attrs: nounwind uwtable
define range(i32 0, 2) i32 @aginternalmapdelete(ptr noundef %0, i32 noundef %1, i64 noundef %2) local_unnamed_addr #0 {
  %4 = alloca %struct.IMapEntry_s, align 8
  %5 = icmp eq i32 %1, 3
  %spec.store.select = select i1 %5, i32 2, i32 %1
  %6 = getelementptr i8, ptr %0, i64 128
  %.val = load ptr, ptr %6, align 8, !tbaa !3
  call void @llvm.lifetime.start.p0(i64 48, ptr nonnull %4) #10
  %7 = getelementptr inbounds nuw i8, ptr %.val, i64 88
  %8 = sext i32 %spec.store.select to i64
  %9 = getelementptr inbounds [3 x ptr], ptr %7, i64 0, i64 %8
  %10 = load ptr, ptr %9, align 8, !tbaa !20
  %.not.i = icmp eq ptr %10, null
  br i1 %.not.i, label %find_isym.exit.thread, label %find_isym.exit

find_isym.exit.thread:                            ; preds = %3
  call void @llvm.lifetime.end.p0(i64 48, ptr nonnull %4) #10
  br label %30

find_isym.exit:                                   ; preds = %3
  %11 = getelementptr inbounds nuw i8, ptr %4, i64 32
  store i64 %2, ptr %11, align 8, !tbaa !28
  %12 = load ptr, ptr %10, align 8, !tbaa !24
  %13 = call ptr %12(ptr noundef nonnull %10, ptr noundef nonnull %4, i32 noundef 4) #10
  call void @llvm.lifetime.end.p0(i64 48, ptr nonnull %4) #10
  %.not = icmp eq ptr %13, null
  br i1 %.not, label %30, label %14

14:                                               ; preds = %find_isym.exit
  %15 = load ptr, ptr %6, align 8, !tbaa !3
  %16 = getelementptr inbounds nuw i8, ptr %15, i64 64
  %17 = getelementptr inbounds [3 x ptr], ptr %16, i64 0, i64 %8
  %18 = load ptr, ptr %17, align 8, !tbaa !20
  %19 = load ptr, ptr %18, align 8, !tbaa !24
  %20 = call ptr %19(ptr noundef nonnull %18, ptr noundef nonnull %13, i32 noundef 2) #10
  %21 = load ptr, ptr %6, align 8, !tbaa !3
  %22 = getelementptr inbounds nuw i8, ptr %21, i64 88
  %23 = getelementptr inbounds [3 x ptr], ptr %22, i64 0, i64 %8
  %24 = load ptr, ptr %23, align 8, !tbaa !20
  %25 = load ptr, ptr %24, align 8, !tbaa !24
  %26 = call ptr %25(ptr noundef nonnull %24, ptr noundef nonnull %13, i32 noundef 2) #10
  %27 = getelementptr inbounds nuw i8, ptr %13, i64 40
  %28 = load ptr, ptr %27, align 8, !tbaa !21
  %29 = call i32 @agstrfree(ptr noundef nonnull %0, ptr noundef %28, i1 noundef zeroext false) #10
  call void @free(ptr noundef nonnull %13) #10
  br label %30

30:                                               ; preds = %find_isym.exit.thread, %find_isym.exit, %14
  %.0 = phi i32 [ 1, %14 ], [ 0, %find_isym.exit ], [ 0, %find_isym.exit.thread ]
  ret i32 %.0
}